; Function Attrs: null_pointer_is_valid sspstrong uwtable
define internal void @nas_emm_id_req(ptr noundef %0, ptr noundef %1, ptr noundef initializes((384, 388)) %2, i32 noundef %3, i32 noundef %4) #1 {
  %6 = getelementptr inbounds nuw i8, ptr %2, i64 384
  store i32 1, ptr %6, align 8
  %7 = shl i32 %3, 3
  %8 = load i32, ptr @hf_nas_eps_emm_spare_half_octet, align 4
  %9 = tail call ptr @proto_tree_add_bits_item(ptr noundef %1, i32 noundef %8, ptr noundef %0, i32 noundef %7, i32 noundef 4, i32 noundef 0)
  %10 = or disjoint i32 %7, 4
  %11 = load i32, ptr @hf_nas_eps_emm_id_type2, align 4
  %12 = tail call ptr @proto_tree_add_bits_item(ptr noundef %1, i32 noundef %11, ptr noundef %0, i32 noundef %10, i32 noundef 4, i32 noundef 0)
  %13 = add i32 %4, -1
  %.not = icmp eq i32 %13, 0
  br i1 %.not, label %17, label %14

14:                                               ; preds = %5
  %15 = add i32 %3, 1
  %16 = tail call ptr @proto_tree_add_expert(ptr noundef %1, ptr noundef %2, ptr noundef nonnull @ei_nas_eps_extraneous_data, ptr noundef %0, i32 noundef %15, i32 noundef %13)
  br label %17

17:                                               ; preds = %14, %5
  ret void
}